; Function Attrs: nofree norecurse nosync nounwind memory(read, inaccessiblemem: none) uwtable
define i32 @Llb_ManCutLoNum(ptr noundef readonly captures(none) %0, ptr noundef readonly captures(none) %1) local_unnamed_addr #5 {
  %3 = getelementptr i8, ptr %1, i64 4
  %.val9 = load i32, ptr %3, align 4, !tbaa !10
  %4 = icmp sgt i32 %.val9, 0
  br i1 %4, label %.lr.ph, label %.critedge

.lr.ph:                                           ; preds = %2
  %5 = getelementptr i8, ptr %1, i64 8
  %.val = load ptr, ptr %5, align 8, !tbaa !9
  %6 = getelementptr i8, ptr %0, i64 108
  %wide.trip.count = zext nneg i32 %.val9 to i64
  br label %7

7:                                                ; preds = %.lr.ph, %13
  %indvars.iv = phi i64 [ 0, %.lr.ph ], [ %indvars.iv.next, %13 ]
  %.014 = phi i32 [ 0, %.lr.ph ], [ %14, %13 ]
  %8 = getelementptr inbounds nuw ptr, ptr %.val, i64 %indvars.iv
  %9 = load ptr, ptr %8, align 8, !tbaa !11
  %10 = getelementptr i8, ptr %9, i64 24
  %.val.i = load i64, ptr %10, align 8
  %11 = and i64 %.val.i, 7
  %.not.i = icmp eq i64 %11, 2
  br i1 %.not.i, label %Saig_ObjIsLo.exit, label %Saig_ObjIsLo.exit.thread

Saig_ObjIsLo.exit:                                ; preds = %7
  %.val3.i = load i32, ptr %9, align 8, !tbaa !40
  %.val4.i = load i32, ptr %6, align 4, !tbaa !41
  %.not12 = icmp slt i32 %.val3.i, %.val4.i
  %12 = add nsw i32 %.014, 1
  %cond.fr = freeze i1 %.not12
  br i1 %cond.fr, label %Saig_ObjIsLo.exit.thread, label %13

Saig_ObjIsLo.exit.thread:                         ; preds = %7, %Saig_ObjIsLo.exit
  br label %13

13:                                               ; preds = %Saig_ObjIsLo.exit, %Saig_ObjIsLo.exit.thread
  %14 = phi i32 [ %.014, %Saig_ObjIsLo.exit.thread ], [ %12, %Saig_ObjIsLo.exit ]
  %indvars.iv.next = add nuw nsw i64 %indvars.iv, 1
  %exitcond.not = icmp eq i64 %indvars.iv.next, %wide.trip.count
  br i1 %exitcond.not, label %.critedge, label %7, !llvm.loop !61

.critedge:                                        ; preds = %13, %2
  %.0.lcssa = phi i32 [ 0, %2 ], [ %14, %13 ]
  ret i32 %.0.lcssa
}